target datalayout = "e-m:e-p270:32:32-p271:32:32-p272:64:64-i64:64-i128:128-f80:128-n8:16:32:64-S128"
target triple = "x86_64-pc-linux-gnu"

%"class.llvm::ArrayRef" = type { ptr, i64 }

; Function Attrs: mustprogress nounwind uwtable
define linkonce_odr hidden void @_ZN4llvm8ArrayRefINS_3omp9DirectiveEEC2EPKS2_m(ptr noundef nonnull align 8 dereferenceable(16) %0, ptr noundef %1, i64 noundef %2) unnamed_addr #0 comdat align 2 {
  %4 = alloca ptr, align 8
  %5 = alloca ptr, align 8
  %6 = alloca i64, align 8
  store ptr %0, ptr %4, align 8
  store ptr %1, ptr %5, align 8
  store i64 %2, ptr %6, align 8
  %7 = load ptr, ptr %4, align 8
  %8 = getelementptr inbounds nuw %"class.llvm::ArrayRef", ptr %7, i32 0, i32 0
  %9 = load ptr, ptr %5, align 8
  store ptr %9, ptr %8, align 8
  %10 = getelementptr inbounds nuw %"class.llvm::ArrayRef", ptr %7, i32 0, i32 1
  %11 = load i64, ptr %6, align 8
  store i64 %11, ptr %10, align 8
  ret void
}

; Function Attrs: mustprogress nounwind uwtable
define linkonce_odr hidden void @_ZN4llvm8ArrayRefINS_3omp9DirectiveEEC2ESt9nullopt_t(ptr noundef nonnull align 8 dereferenceable(16) %0) unnamed_addr #0 comdat align 2 {
  %2 = alloca ptr, align 8
  store ptr %0, ptr %2, align 8
  %3 = load ptr, ptr %2, align 8
  %4 = getelementptr inbounds nuw %"class.llvm::ArrayRef", ptr %3, i32 0, i32 0
  store ptr null, ptr %4, align 8
  %5 = getelementptr inbounds nuw %"class.llvm::ArrayRef", ptr %3, i32 0, i32 1
  store i64 0, ptr %5, align 8
  ret void
}

; Function Attrs: mustprogress nounwind uwtable
define linkonce_odr hidden void @_ZN4llvm8ArrayRefINS_3omp9DirectiveEEC2EPKS2_S5_(ptr noundef nonnull align 8 dereferenceable(16) %0, ptr noundef %1, ptr noundef %2) unnamed_addr #0 comdat align 2 {
  %4 = alloca ptr, align 8
  %5 = alloca ptr, align 8
  %6 = alloca ptr, align 8
  store ptr %0, ptr %4, align 8
  store ptr %1, ptr %5, align 8
  store ptr %2, ptr %6, align 8
  %7 = load ptr, ptr %4, align 8
  %8 = getelementptr inbounds nuw %"class.llvm::ArrayRef", ptr %7, i32 0, i32 0
  %9 = load ptr, ptr %5, align 8
  store ptr %9, ptr %8, align 8
  %10 = getelementptr inbounds nuw %"class.llvm::ArrayRef", ptr %7, i32 0, i32 1
  %11 = load ptr, ptr %6, align 8
  %12 = load ptr, ptr %5, align 8
  %13 = ptrtoint ptr %11 to i64
  %14 = ptrtoint ptr %12 to i64
  %15 = sub i64 %13, %14
  %16 = sdiv exact i64 %15, 4
  store i64 %16, ptr %10, align 8
  ret void
}

; Function Attrs: mustprogress nounwind uwtable
define linkonce_odr hidden noundef zeroext i1 @_ZNK4llvm8ArrayRefINS_3omp9DirectiveEE5emptyEv(ptr noundef nonnull align 8 dereferenceable(16) %0) #0 comdat align 2 {
  %2 = alloca ptr, align 8
  store ptr %0, ptr %2, align 8
  %3 = load ptr, ptr %2, align 8
  %4 = getelementptr inbounds nuw %"class.llvm::ArrayRef", ptr %3, i32 0, i32 1
  %5 = load i64, ptr %4, align 8
  %6 = icmp eq i64 %5, 0
  ret i1 %6
}

; Function Attrs: mustprogress nounwind uwtable
define dso_local { ptr, i64 } @_ZN4llvm3omp17getLeafConstructsENS0_9DirectiveE(i32 noundef %0) #0 {
  %2 = alloca %"class.llvm::ArrayRef", align 8
  %3 = alloca i32, align 4
  %4 = alloca i64, align 8
  %5 = alloca ptr, align 8
  store i32 %0, ptr %3, align 4
  %6 = load i32, ptr %3, align 4
  %7 = sext i32 %6 to i64
  store i64 %7, ptr %4, align 8
  %8 = load i64, ptr %4, align 8
  %9 = icmp uge i64 %8, 113
  br i1 %9, label %10, label %11

10:                                               ; preds = %1
  call void @_ZN4llvm8ArrayRefINS_3omp9DirectiveEEC2ESt9nullopt_t(ptr noundef nonnull align 8 dereferenceable(16) %2)
  br label %24

11:                                               ; preds = %1
  %12 = load i64, ptr %4, align 8
  %13 = getelementptr inbounds [113 x i32], ptr @_ZL26LeafConstructTableOrdering, i64 0, i64 %12
  %14 = load i32, ptr %13, align 4
  %15 = sext i32 %14 to i64
  %16 = getelementptr inbounds [113 x [8 x i32]], ptr @_ZL18LeafConstructTable, i64 0, i64 %15
  %17 = getelementptr inbounds [8 x i32], ptr %16, i64 0, i64 0
  store ptr %17, ptr %5, align 8
  %18 = load ptr, ptr %5, align 8
  %19 = getelementptr inbounds i32, ptr %18, i64 2
  %20 = load ptr, ptr %5, align 8
  %21 = getelementptr inbounds i32, ptr %20, i64 1
  %22 = load i32, ptr %21, align 4
  %23 = sext i32 %22 to i64
  call void @_ZN4llvm8ArrayRefINS_3omp9DirectiveEEC2EPKS2_m(ptr noundef nonnull align 8 dereferenceable(16) %2, ptr noundef %19, i64 noundef %23)
  br label %24

24:                                               ; preds = %11, %10
  %25 = load { ptr, i64 }, ptr %2, align 8
  ret { ptr, i64 } %25
}

; Function Attrs: mustprogress nounwind uwtable
define dso_local { ptr, i64 } @_ZN4llvm3omp23getLeafConstructsOrSelfENS0_9DirectiveE(i32 noundef %0) #0 {
  %2 = alloca %"class.llvm::ArrayRef", align 8
  %3 = alloca i32, align 4
  %4 = alloca i64, align 8
  %5 = alloca ptr, align 8
  store i32 %0, ptr %3, align 4
  %6 = load i32, ptr %3, align 4
  %7 = call { ptr, i64 } @_ZN4llvm3omp17getLeafConstructsENS0_9DirectiveE(i32 noundef %6)
  %8 = getelementptr inbounds nuw { ptr, i64 }, ptr %2, i32 0, i32 0
  %9 = extractvalue { ptr, i64 } %7, 0
  store ptr %9, ptr %8, align 8
  %10 = getelementptr inbounds nuw { ptr, i64 }, ptr %2, i32 0, i32 1
  %11 = extractvalue { ptr, i64 } %7, 1
  store i64 %11, ptr %10, align 8
  %12 = call noundef zeroext i1 @_ZNK4llvm8ArrayRefINS_3omp9DirectiveEE5emptyEv(ptr noundef nonnull align 8 dereferenceable(16) %2)
  br i1 %12, label %14, label %13

13:                                               ; preds = %1
  br label %28

14:                                               ; preds = %1
  %15 = load i32, ptr %3, align 4
  %16 = sext i32 %15 to i64
  store i64 %16, ptr %4, align 8
  %17 = load i64, ptr %4, align 8
  %18 = getelementptr inbounds [113 x i32], ptr @_ZL26LeafConstructTableOrdering, i64 0, i64 %17
  %19 = load i32, ptr %18, align 4
  %20 = sext i32 %19 to i64
  %21 = getelementptr inbounds [113 x [8 x i32]], ptr @_ZL18LeafConstructTable, i64 0, i64 %20
  %22 = getelementptr inbounds [8 x i32], ptr %21, i64 0, i64 0
  store ptr %22, ptr %5, align 8
  %23 = load ptr, ptr %5, align 8
  %24 = getelementptr inbounds i32, ptr %23, i64 0
  %25 = load ptr, ptr %5, align 8
  %26 = getelementptr inbounds i32, ptr %25, i64 0
  %27 = getelementptr inbounds i32, ptr %26, i64 1
  call void @_ZN4llvm8ArrayRefINS_3omp9DirectiveEEC2EPKS2_S5_(ptr noundef nonnull align 8 dereferenceable(16) %2, ptr noundef %24, ptr noundef %27)
  br label %28

28:                                               ; preds = %14, %13
  %29 = load { ptr, i64 }, ptr %2, align 8
  ret { ptr, i64 } %29
}