; Function Attrs: mustprogress nofree norecurse nosync nounwind willreturn memory(none) uwtable
define dso_local { ptr, i64 } @_ZN4llvm3omp23getLeafConstructsOrSelfENS0_9DirectiveE(i32 noundef %0) local_unnamed_addr #2 {
  %2 = icmp ugt i32 %0, 112
  br i1 %2, label %._ZN4llvm3omp17getLeafConstructsENS0_9DirectiveE.exit.thread_crit_edge, label %_ZN4llvm3omp17getLeafConstructsENS0_9DirectiveE.exit

._ZN4llvm3omp17getLeafConstructsENS0_9DirectiveE.exit.thread_crit_edge: ; preds = %1
  %.phi.trans.insert = sext i32 %0 to i64
  %.phi.trans.insert9 = getelementptr inbounds [113 x i32], ptr @_ZL26LeafConstructTableOrdering, i64 0, i64 %.phi.trans.insert
  %.pre = load i32, ptr %.phi.trans.insert9, align 4
  %.pre10 = sext i32 %.pre to i64
  br label %_ZN4llvm3omp17getLeafConstructsENS0_9DirectiveE.exit.thread

_ZN4llvm3omp17getLeafConstructsENS0_9DirectiveE.exit: ; preds = %1
  %3 = zext nneg i32 %0 to i64
  %4 = getelementptr inbounds [113 x i32], ptr @_ZL26LeafConstructTableOrdering, i64 0, i64 %3
  %5 = load i32, ptr %4, align 4
  %6 = sext i32 %5 to i64
  %7 = getelementptr inbounds [113 x [8 x i32]], ptr @_ZL18LeafConstructTable, i64 0, i64 %6
  %8 = getelementptr inbounds i8, ptr %7, i64 8
  %9 = getelementptr inbounds i8, ptr %7, i64 4
  %10 = load i32, ptr %9, align 4
  %11 = sext i32 %10 to i64
  %12 = icmp eq i32 %10, 0
  br i1 %12, label %_ZN4llvm3omp17getLeafConstructsENS0_9DirectiveE.exit.thread, label %14

_ZN4llvm3omp17getLeafConstructsENS0_9DirectiveE.exit.thread: ; preds = %_ZN4llvm3omp17getLeafConstructsENS0_9DirectiveE.exit, %._ZN4llvm3omp17getLeafConstructsENS0_9DirectiveE.exit.thread_crit_edge
  %.pre-phi = phi i64 [ %.pre10, %._ZN4llvm3omp17getLeafConstructsENS0_9DirectiveE.exit.thread_crit_edge ], [ %6, %_ZN4llvm3omp17getLeafConstructsENS0_9DirectiveE.exit ]
  %13 = getelementptr inbounds [113 x [8 x i32]], ptr @_ZL18LeafConstructTable, i64 0, i64 %.pre-phi
  br label %14

14:                                               ; preds = %_ZN4llvm3omp17getLeafConstructsENS0_9DirectiveE.exit, %_ZN4llvm3omp17getLeafConstructsENS0_9DirectiveE.exit.thread
  %.sroa.3.0 = phi i64 [ 1, %_ZN4llvm3omp17getLeafConstructsENS0_9DirectiveE.exit.thread ], [ %11, %_ZN4llvm3omp17getLeafConstructsENS0_9DirectiveE.exit ]
  %.sroa.0.0 = phi ptr [ %13, %_ZN4llvm3omp17getLeafConstructsENS0_9DirectiveE.exit.thread ], [ %8, %_ZN4llvm3omp17getLeafConstructsENS0_9DirectiveE.exit ]
  %.fca.0.insert = insertvalue { ptr, i64 } poison, ptr %.sroa.0.0, 0
  %.fca.1.insert = insertvalue { ptr, i64 } %.fca.0.insert, i64 %.sroa.3.0, 1
  ret { ptr, i64 } %.fca.1.insert
}